; Function Attrs: mustprogress uwtable
define internal void @"_ZNSt17_Function_handlerIFvvEZN2tf8Executor5asyncIZ4mainE3$_1EEDaRKNSt7__cxx1112basic_stringIcSt11char_traitsIcESaIcEEEOT_EUlvE_E9_M_invokeERKSt9_Any_data"(ptr nocapture noundef nonnull readonly align 8 dereferenceable(16) %__functor) #6 align 2 {
entry:
  %__functor.val = load ptr, ptr %__functor, align 8
  %call.val = load ptr, ptr %__functor.val, align 8
  %cmp.i.not.i.i.i.i.i = icmp eq ptr %call.val, null
  br i1 %cmp.i.not.i.i.i.i.i, label %if.then.i.i.i.i.i, label %"_ZSt10__invoke_rIvRZN2tf8Executor5asyncIZ4mainE3$_1EEDaRKNSt7__cxx1112basic_stringIcSt11char_traitsIcESaIcEEEOT_EUlvE_JEENSt9enable_ifIX16is_invocable_r_vISC_T0_DpT1_EESC_E4typeEOSH_DpOSI_.exit"

if.then.i.i.i.i.i:                                ; preds = %entry
  tail call void @_ZSt20__throw_future_errori(i32 noundef 3) #37
  unreachable

"_ZSt10__invoke_rIvRZN2tf8Executor5asyncIZ4mainE3$_1EEDaRKNSt7__cxx1112basic_stringIcSt11char_traitsIcESaIcEEEOT_EUlvE_JEENSt9enable_ifIX16is_invocable_r_vISC_T0_DpT1_EESC_E4typeEOSH_DpOSI_.exit": ; preds = %entry
  %vtable.i.i.i.i = load ptr, ptr %call.val, align 8
  %vfn.i.i.i.i = getelementptr inbounds i8, ptr %vtable.i.i.i.i, i64 32
  %0 = load ptr, ptr %vfn.i.i.i.i, align 8
  tail call void %0(ptr noundef nonnull align 8 dereferenceable(40) %call.val)
  ret void
}